Certificate:
    Data:
        Version: 3 (0x2)
        Serial Number: 4097 (0x1001)
        Signature Algorithm: sha256WithRSAEncryption
        Issuer: C=HG, ST=HG, L=HG, O=HG, CN=Homegear CA DE2B9D18-66B1-59F9-42B2-6A1DDA5FDBDC
        Validity
            Not Before: Aug 10 14:20:46 2022 GMT
            Not After : May 25 14:20:46 2296 GMT
        Subject: C=HG, ST=HG, O=HG, CN=rpcserver
        Subject Public Key Info:
            Public Key Algorithm: rsaEncryption
                RSA Public-Key: (4096 bit)
                Modulus:
                    00:a8:06:55:3b:ed:2c:ff:fe:cf:19:4d:d2:81:61:
                    9c:b5:70:92:70:db:26:b6:45:05:ee:b2:68:db:1e:
                    be:cf:6f:a9:17:a0:72:f2:5a:73:df:5d:2c:80:f3:
                    c1:bd:66:6c:0b:91:78:8d:81:21:6f:73:6b:78:13:
                    ef:72:16:ee:53:ce:0f:f7:0f:f5:6a:a2:8f:75:a1:
                    01:fa:32:ea:93:29:d3:bc:76:3b:30:34:aa:30:62:
                    8f:fb:a4:f6:ae:db:8e:24:dd:ed:f8:2f:fb:03:71:
                    8b:b1:87:54:fd:3b:4f:e5:6d:af:78:28:5e:ca:34:
                    18:23:d0:20:82:9e:99:64:e6:70:5c:0a:aa:92:84:
                    c0:ad:0a:a7:88:aa:47:7e:90:59:77:9a:05:6b:8b:
                    0f:78:62:db:39:c3:55:b2:c9:d1:32:23:45:7d:ae:
                    68:75:25:b4:82:33:33:b1:1e:4a:3b:a4:31:d6:a8:
                    10:56:45:85:22:12:44:91:35:ae:d5:c8:fc:92:9a:
                    3e:65:9f:1a:a3:f9:a5:5a:4b:05:f6:20:1a:f8:c1:
                    d8:2c:a6:b7:07:f0:a2:b3:9f:88:13:09:80:81:2f:
                    a5:88:03:43:18:c5:1c:c7:24:eb:7b:d7:d0:9a:d0:
                    7c:14:ad:37:fa:f2:fe:77:7b:a8:52:79:5a:69:c0:
                    2d:4f:40:e8:e1:93:28:ca:57:a6:79:7f:b6:b0:44:
                    89:23:67:5e:e6:5f:21:99:7f:61:17:86:0f:e8:48:
                    80:b6:29:47:a5:6c:b8:28:fb:48:2f:d2:a6:c8:ee:
                    f8:12:20:c4:ac:f6:5d:2c:2f:10:36:25:e1:fb:3e:
                    2f:48:99:19:13:03:4d:fd:98:86:f5:49:c9:b2:c2:
                    28:bc:a4:08:34:51:1b:d7:85:77:38:d9:f6:9c:a9:
                    b7:16:6a:2b:23:ab:53:63:00:d6:32:37:9e:04:df:
                    b5:14:a6:67:70:2b:94:7b:ef:5b:15:7f:61:04:ed:
                    35:5a:2a:d3:64:c5:2a:11:68:08:75:2f:6b:d1:c6:
                    87:4f:09:9f:c1:fb:04:79:b2:16:fa:d7:26:29:8a:
                    01:84:85:73:ae:0f:22:d3:b8:be:66:db:7f:39:26:
                    54:af:54:5a:ae:0a:af:38:30:9a:79:aa:e0:7f:3e:
                    e7:2d:20:78:2c:66:6c:fa:f2:81:94:30:4b:e1:cb:
                    be:3f:b8:2d:ad:26:da:12:64:19:d0:8d:73:f3:37:
                    dd:f6:d4:f5:03:9d:c7:de:c6:36:78:c0:8b:5a:2b:
                    40:9a:5a:43:9a:ab:03:7c:bb:53:58:10:e8:67:a6:
                    f1:3a:0f:3a:76:d8:ab:8c:5f:fb:72:43:c8:da:77:
                    37:3d:c5
                Exponent: 65537 (0x10001)
        X509v3 extensions:
            X509v3 Basic Constraints: 
                CA:FALSE
            Netscape Comment: 
                OpenSSL Generated Certificate
            X509v3 Subject Key Identifier: 
                D4:F4:60:5D:B8:AA:6F:83:5A:57:EF:E8:B5:E5:02:03:D1:1C:28:24
            X509v3 Authority Key Identifier: 
                keyid:99:74:56:99:5F:25:A6:18:74:DA:48:05:97:D4:B1:F5:41:F2:3A:7E

    Signature Algorithm: sha256WithRSAEncryption
         07:ad:03:fe:1a:8f:eb:1a:fd:f4:4d:1e:96:81:f1:a0:e2:e7:
         95:97:51:46:f0:1f:30:b6:92:0b:9c:45:29:86:6b:1c:64:49:
         9a:0d:56:25:f1:64:06:e1:ee:f1:1a:8d:79:5a:7d:a0:e6:db:
         5c:8a:e2:82:5b:42:7b:9e:74:c0:d5:17:22:dd:5d:96:0d:6a:
         48:c3:51:63:58:b4:4a:ab:50:2a:eb:24:bc:4b:21:75:2c:ae:
         8b:90:59:9c:28:09:dc:65:10:64:9c:d8:1f:e1:03:84:08:4b:
         c9:f4:64:6d:69:b2:42:52:4a:c3:ee:e9:12:15:7a:90:5e:4c:
         89:82:bb:58:3e:33:54:8e:f2:3d:5e:2a:2d:f2:ad:a7:70:20:
         5a:b7:9c:05:02:40:dd:00:f1:bb:78:a9:3c:37:a8:ff:f8:e1:
         3c:6b:6d:b1:c9:03:15:f1:65:71:e3:a6:4b:c1:2c:07:5a:4a:
         e9:27:a1:81:36:9e:60:a9:f3:e6:35:61:e1:06:d1:36:9c:62:
         9d:f0:00:a9:35:86:0f:c0:ba:d6:43:3d:6c:cd:13:ac:e5:f5:
         e4:67:32:b8:31:b4:ed:19:d8:d0:d5:eb:b3:bf:9a:00:2b:2c:
         08:ed:68:1c:c4:84:70:8b:46:a7:2b:6b:42:3c:ba:50:b4:51:
         76:10:a3:37:1d:64:25:b2:f2:f9:84:00:68:41:45:cd:24:2c:
         ff:62:ed:5c:7b:2b:53:c3:11:4a:d4:46:5d:3e:15:21:21:b8:
         21:87:92:f6:82:5c:d5:06:90:e1:c7:ea:21:9c:81:60:9c:62:
         5d:c2:db:ce:fd:b9:8e:ff:5b:29:77:7f:81:33:56:8f:ac:51:
         45:8a:72:85:b3:75:ef:eb:1d:2f:fd:49:48:f1:04:e8:42:48:
         7a:44:b4:47:6b:a7:d4:91:59:fb:c0:70:25:61:43:86:f1:3d:
         74:2d:bb:74:51:1b:bc:3c:25:f2:33:7c:39:7b:19:af:42:9b:
         00:19:4b:1d:15:db:6d:61:55:89:a1:c3:47:a7:4a:d3:8b:08:
         d1:11:8d:d8:57:44:1c:80:13:38:ee:bb:23:b3:6b:2b:01:2f:
         a7:9e:a0:09:b9:7f:1a:13:34:07:fc:13:4e:f3:57:0d:17:f6:
         25:76:0c:dd:9d:44:9e:b1:70:ab:20:56:a2:69:ce:96:cb:70:
         ef:ce:e9:b9:4b:6f:c1:ef:b1:5b:74:98:ad:1a:e9:5f:98:c3:
         62:bb:4b:cb:40:39:15:36:e1:c9:2c:62:26:79:07:7c:48:ba:
         50:fa:00:bd:2a:94:82:67:49:07:0b:0c:1c:cb:04:4a:1f:9f:
         24:e7:ec:65:12:23:df:f1
-----BEGIN CERTIFICATE-----
MIIFozCCA4ugAwIBAgICEAEwDQYJKoZIhvcNAQELBQAwbzELMAkGA1UEBhMCSEcx
CzAJBgNVBAgMAkhHMQswCQYDVQQHDAJIRzELMAkGA1UECgwCSEcxOTA3BgNVBAMM
MEhvbWVnZWFyIENBIERFMkI5RDE4LTY2QjEtNTlGOS00MkIyLTZBMUREQTVGREJE
QzAgFw0yMjA4MTAxNDIwNDZaGA8yMjk2MDUyNTE0MjA0NlowOzELMAkGA1UEBhMC
SEcxCzAJBgNVBAgMAkhHMQswCQYDVQQKDAJIRzESMBAGA1UEAwwJcnBjc2VydmVy
MIICIjANBgkqhkiG9w0BAQEFAAOCAg8AMIICCgKCAgEAqAZVO+0s//7PGU3SgWGc
tXCScNsmtkUF7rJo2x6+z2+pF6By8lpz310sgPPBvWZsC5F4jYEhb3NreBPvchbu
U84P9w/1aqKPdaEB+jLqkynTvHY7MDSqMGKP+6T2rtuOJN3t+C/7A3GLsYdU/TtP
5W2veCheyjQYI9Aggp6ZZOZwXAqqkoTArQqniKpHfpBZd5oFa4sPeGLbOcNVssnR
MiNFfa5odSW0gjMzsR5KO6Qx1qgQVkWFIhJEkTWu1cj8kpo+ZZ8ao/mlWksF9iAa
+MHYLKa3B/Cis5+IEwmAgS+liANDGMUcxyTre9fQmtB8FK03+vL+d3uoUnlaacAt
T0Do4ZMoylemeX+2sESJI2de5l8hmX9hF4YP6EiAtilHpWy4KPtIL9KmyO74EiDE
rPZdLC8QNiXh+z4vSJkZEwNN/ZiG9UnJssIovKQINFEb14V3ONn2nKm3FmorI6tT
YwDWMjeeBN+1FKZncCuUe+9bFX9hBO01WirTZMUqEWgIdS9r0caHTwmfwfsEebIW
+tcmKYoBhIVzrg8i07i+Ztt/OSZUr1RargqvODCaeargfz7nLSB4LGZs+vKBlDBL
4cu+P7gtrSbaEmQZ0I1z8zfd9tT1A53H3sY2eMCLWitAmlpDmqsDfLtTWBDoZ6bx
Og86dtirjF/7ckPI2nc3PcUCAwEAAaN7MHkwCQYDVR0TBAIwADAsBglghkgBhvhC
AQ0EHxYdT3BlblNTTCBHZW5lcmF0ZWQgQ2VydGlmaWNhdGUwHQYDVR0OBBYEFNT0
YF24qm+DWlfv6LXlAgPRHCgkMB8GA1UdIwQYMBaAFJl0VplfJaYYdNpIBZfUsfVB
8jp+MA0GCSqGSIb3DQEBCwUAA4ICAQAHrQP+Go/rGv30TR6WgfGg4ueVl1FG8B8w
tpILnEUphmscZEmaDVYl8WQG4e7xGo15Wn2g5ttciuKCW0J7nnTA1Rci3V2WDWpI
w1FjWLRKq1Aq6yS8SyF1LK6LkFmcKAncZRBknNgf4QOECEvJ9GRtabJCUkrD7ukS
FXqQXkyJgrtYPjNUjvI9Xiot8q2ncCBat5wFAkDdAPG7eKk8N6j/+OE8a22xyQMV
8WVx46ZLwSwHWkrpJ6GBNp5gqfPmNWHhBtE2nGKd8ACpNYYPwLrWQz1szROs5fXk
ZzK4MbTtGdjQ1euzv5oAKywI7WgcxIRwi0anK2tCPLpQtFF2EKM3HWQlsvL5hABo
QUXNJCz/Yu1ceytTwxFK1EZdPhUhIbghh5L2glzVBpDhx+ohnIFgnGJdwtvO/bmO
/1spd3+BM1aPrFFFinKFs3Xv6x0v/UlI8QToQkh6RLRHa6fUkVn7wHAlYUOG8T10
Lbt0URu8PCXyM3w5exmvQpsAGUsdFdttYVWJocNHp0rTiwjREY3YV0QcgBM47rsj
s2srAS+nnqAJuX8aEzQH/BNO81cNF/YldgzdnUSesXCrIFaiac6Wy3Dvzum5S2/B
77FbdJitGulfmMNiu0vLQDkVNuHJLGImeQd8SLpQ+gC9KpSCZ0kHCwwcywRKH58k
5+xlEiPf8Q==
-----END CERTIFICATE-----
